; ModuleID = '24/832.c'
source_filename = "24/832.c"
target datalayout = "e-m:e-p270:32:32-p271:32:32-p272:64:64-i64:64-f80:128-n8:16:32:64-S128"
target triple = "x86_64-pc-linux-gnu"

@.str = private unnamed_addr constant [4 x i8] c"%s\0A\00", align 1

; Function Attrs: noinline nounwind uwtable
define dso_local i32 @main() #0 {
  %1 = alloca i32, align 4
  %2 = alloca [50 x [50 x i8]], align 16
  %3 = alloca [500 x i8], align 16
  %4 = alloca i8*, align 8
  %5 = alloca [50 x i32], align 16
  %6 = alloca i32, align 4
  %7 = alloca i32, align 4
  %8 = alloca i32, align 4
  %9 = alloca i32, align 4
  %10 = alloca i32, align 4
  %11 = alloca i32, align 4
  %12 = alloca i32, align 4
  %13 = alloca i32, align 4
  %14 = alloca i32, align 4
  store i32 0, i32* %1, align 4
  store i32 0, i32* %7, align 4
  %15 = getelementptr inbounds [500 x i8], [500 x i8]* %3, i64 0, i64 0
  %16 = call i32 (i8*, ...) bitcast (i32 (...)* @gets to i32 (i8*, ...)*)(i8* %15)
  %17 = getelementptr inbounds [500 x i8], [500 x i8]* %3, i64 0, i64 0
  store i8* %17, i8** %4, align 8
  store i32 0, i32* %8, align 4
  br label %18

18:                                               ; preds = %78, %0
  %19 = load i32, i32* %8, align 4
  %20 = icmp slt i32 %19, 50
  br i1 %20, label %21, label %81

21:                                               ; preds = %18
  br label %22

22:                                               ; preds = %27, %21
  %23 = load i8*, i8** %4, align 8
  %24 = load i8, i8* %23, align 1
  %25 = sext i8 %24 to i32
  %26 = icmp eq i32 %25, 32
  br i1 %26, label %27, label %30

27:                                               ; preds = %22
  %28 = load i8*, i8** %4, align 8
  %29 = getelementptr inbounds i8, i8* %28, i32 1
  store i8* %29, i8** %4, align 8
  br label %22

30:                                               ; preds = %22
  store i32 0, i32* %10, align 4
  br label %31

31:                                               ; preds = %43, %30
  %32 = load i8*, i8** %4, align 8
  %33 = load i8, i8* %32, align 1
  %34 = sext i8 %33 to i32
  %35 = icmp ne i32 %34, 32
  br i1 %35, label %36, label %41

36:                                               ; preds = %31
  %37 = load i8*, i8** %4, align 8
  %38 = load i8, i8* %37, align 1
  %39 = sext i8 %38 to i32
  %40 = icmp ne i32 %39, 0
  br label %41

41:                                               ; preds = %36, %31
  %42 = phi i1 [ false, %31 ], [ %40, %36 ]
  br i1 %42, label %43, label %56

43:                                               ; preds = %41
  %44 = load i8*, i8** %4, align 8
  %45 = load i8, i8* %44, align 1
  %46 = load i32, i32* %8, align 4
  %47 = sext i32 %46 to i64
  %48 = getelementptr inbounds [50 x [50 x i8]], [50 x [50 x i8]]* %2, i64 0, i64 %47
  %49 = load i32, i32* %10, align 4
  %50 = sext i32 %49 to i64
  %51 = getelementptr inbounds [50 x i8], [50 x i8]* %48, i64 0, i64 %50
  store i8 %45, i8* %51, align 1
  %52 = load i32, i32* %10, align 4
  %53 = add nsw i32 %52, 1
  store i32 %53, i32* %10, align 4
  %54 = load i8*, i8** %4, align 8
  %55 = getelementptr inbounds i8, i8* %54, i32 1
  store i8* %55, i8** %4, align 8
  br label %31

56:                                               ; preds = %41
  %57 = load i32, i32* %8, align 4
  %58 = sext i32 %57 to i64
  %59 = getelementptr inbounds [50 x [50 x i8]], [50 x [50 x i8]]* %2, i64 0, i64 %58
  %60 = load i32, i32* %10, align 4
  %61 = sext i32 %60 to i64
  %62 = getelementptr inbounds [50 x i8], [50 x i8]* %59, i64 0, i64 %61
  store i8 0, i8* %62, align 1
  %63 = load i32, i32* %8, align 4
  %64 = sext i32 %63 to i64
  %65 = getelementptr inbounds [50 x [50 x i8]], [50 x [50 x i8]]* %2, i64 0, i64 %64
  %66 = getelementptr inbounds [50 x i8], [50 x i8]* %65, i64 0, i64 0
  %67 = call i64 @strlen(i8* %66) #3
  %68 = trunc i64 %67 to i32
  %69 = load i32, i32* %8, align 4
  %70 = sext i32 %69 to i64
  %71 = getelementptr inbounds [50 x i32], [50 x i32]* %5, i64 0, i64 %70
  store i32 %68, i32* %71, align 4
  %72 = load i8*, i8** %4, align 8
  %73 = load i8, i8* %72, align 1
  %74 = sext i8 %73 to i32
  %75 = icmp eq i32 %74, 0
  br i1 %75, label %76, label %77

76:                                               ; preds = %56
  br label %81

77:                                               ; preds = %56
  br label %78

78:                                               ; preds = %77
  %79 = load i32, i32* %8, align 4
  %80 = add nsw i32 %79, 1
  store i32 %80, i32* %8, align 4
  br label %18

81:                                               ; preds = %76, %18
  %82 = load i32, i32* %8, align 4
  %83 = add nsw i32 %82, 1
  store i32 %83, i32* %7, align 4
  store i32 1, i32* %11, align 4
  br label %84

84:                                               ; preds = %129, %81
  %85 = load i32, i32* %11, align 4
  %86 = load i32, i32* %7, align 4
  %87 = icmp sle i32 %85, %86
  br i1 %87, label %88, label %132

88:                                               ; preds = %84
  store i32 0, i32* %12, align 4
  br label %89

89:                                               ; preds = %125, %88
  %90 = load i32, i32* %12, align 4
  %91 = load i32, i32* %7, align 4
  %92 = load i32, i32* %11, align 4
  %93 = sub nsw i32 %91, %92
  %94 = icmp slt i32 %90, %93
  br i1 %94, label %95, label %128

95:                                               ; preds = %89
  %96 = load i32, i32* %12, align 4
  %97 = sext i32 %96 to i64
  %98 = getelementptr inbounds [50 x i32], [50 x i32]* %5, i64 0, i64 %97
  %99 = load i32, i32* %98, align 4
  %100 = load i32, i32* %12, align 4
  %101 = add nsw i32 %100, 1
  %102 = sext i32 %101 to i64
  %103 = getelementptr inbounds [50 x i32], [50 x i32]* %5, i64 0, i64 %102
  %104 = load i32, i32* %103, align 4
  %105 = icmp sgt i32 %99, %104
  br i1 %105, label %106, label %124

106:                                              ; preds = %95
  %107 = load i32, i32* %12, align 4
  %108 = add nsw i32 %107, 1
  %109 = sext i32 %108 to i64
  %110 = getelementptr inbounds [50 x i32], [50 x i32]* %5, i64 0, i64 %109
  %111 = load i32, i32* %110, align 4
  store i32 %111, i32* %6, align 4
  %112 = load i32, i32* %12, align 4
  %113 = sext i32 %112 to i64
  %114 = getelementptr inbounds [50 x i32], [50 x i32]* %5, i64 0, i64 %113
  %115 = load i32, i32* %114, align 4
  %116 = load i32, i32* %12, align 4
  %117 = add nsw i32 %116, 1
  %118 = sext i32 %117 to i64
  %119 = getelementptr inbounds [50 x i32], [50 x i32]* %5, i64 0, i64 %118
  store i32 %115, i32* %119, align 4
  %120 = load i32, i32* %6, align 4
  %121 = load i32, i32* %12, align 4
  %122 = sext i32 %121 to i64
  %123 = getelementptr inbounds [50 x i32], [50 x i32]* %5, i64 0, i64 %122
  store i32 %120, i32* %123, align 4
  br label %124

124:                                              ; preds = %106, %95
  br label %125

125:                                              ; preds = %124
  %126 = load i32, i32* %12, align 4
  %127 = add nsw i32 %126, 1
  store i32 %127, i32* %12, align 4
  br label %89

128:                                              ; preds = %89
  br label %129

129:                                              ; preds = %128
  %130 = load i32, i32* %11, align 4
  %131 = add nsw i32 %130, 1
  store i32 %131, i32* %11, align 4
  br label %84

132:                                              ; preds = %84
  store i32 0, i32* %13, align 4
  br label %133

133:                                              ; preds = %158, %132
  %134 = load i32, i32* %13, align 4
  %135 = load i32, i32* %7, align 4
  %136 = icmp slt i32 %134, %135
  br i1 %136, label %137, label %161

137:                                              ; preds = %133
  %138 = load i32, i32* %13, align 4
  %139 = sext i32 %138 to i64
  %140 = getelementptr inbounds [50 x [50 x i8]], [50 x [50 x i8]]* %2, i64 0, i64 %139
  %141 = getelementptr inbounds [50 x i8], [50 x i8]* %140, i64 0, i64 0
  %142 = call i64 @strlen(i8* %141) #3
  %143 = trunc i64 %142 to i32
  store i32 %143, i32* %9, align 4
  %144 = load i32, i32* %7, align 4
  %145 = sub nsw i32 %144, 1
  %146 = sext i32 %145 to i64
  %147 = getelementptr inbounds [50 x i32], [50 x i32]* %5, i64 0, i64 %146
  %148 = load i32, i32* %147, align 4
  %149 = load i32, i32* %9, align 4
  %150 = icmp eq i32 %148, %149
  br i1 %150, label %151, label %157

151:                                              ; preds = %137
  %152 = load i32, i32* %13, align 4
  %153 = sext i32 %152 to i64
  %154 = getelementptr inbounds [50 x [50 x i8]], [50 x [50 x i8]]* %2, i64 0, i64 %153
  %155 = getelementptr inbounds [50 x i8], [50 x i8]* %154, i64 0, i64 0
  %156 = call i32 (i8*, ...) @printf(i8* getelementptr inbounds ([4 x i8], [4 x i8]* @.str, i64 0, i64 0), i8* %155)
  br label %161

157:                                              ; preds = %137
  br label %158

158:                                              ; preds = %157
  %159 = load i32, i32* %13, align 4
  %160 = add nsw i32 %159, 1
  store i32 %160, i32* %13, align 4
  br label %133

161:                                              ; preds = %151, %133
  store i32 0, i32* %14, align 4
  br label %162

162:                                              ; preds = %184, %161
  %163 = load i32, i32* %14, align 4
  %164 = load i32, i32* %7, align 4
  %165 = icmp slt i32 %163, %164
  br i1 %165, label %166, label %187

166:                                              ; preds = %162
  %167 = load i32, i32* %14, align 4
  %168 = sext i32 %167 to i64
  %169 = getelementptr inbounds [50 x [50 x i8]], [50 x [50 x i8]]* %2, i64 0, i64 %168
  %170 = getelementptr inbounds [50 x i8], [50 x i8]* %169, i64 0, i64 0
  %171 = call i64 @strlen(i8* %170) #3
  %172 = trunc i64 %171 to i32
  store i32 %172, i32* %9, align 4
  %173 = getelementptr inbounds [50 x i32], [50 x i32]* %5, i64 0, i64 0
  %174 = load i32, i32* %173, align 16
  %175 = load i32, i32* %9, align 4
  %176 = icmp eq i32 %174, %175
  br i1 %176, label %177, label %183

177:                                              ; preds = %166
  %178 = load i32, i32* %14, align 4
  %179 = sext i32 %178 to i64
  %180 = getelementptr inbounds [50 x [50 x i8]], [50 x [50 x i8]]* %2, i64 0, i64 %179
  %181 = getelementptr inbounds [50 x i8], [50 x i8]* %180, i64 0, i64 0
  %182 = call i32 (i8*, ...) @printf(i8* getelementptr inbounds ([4 x i8], [4 x i8]* @.str, i64 0, i64 0), i8* %181)
  br label %187

183:                                              ; preds = %166
  br label %184

184:                                              ; preds = %183
  %185 = load i32, i32* %14, align 4
  %186 = add nsw i32 %185, 1
  store i32 %186, i32* %14, align 4
  br label %162

187:                                              ; preds = %177, %162
  ret i32 0
}

declare dso_local i32 @gets(...) #1

; Function Attrs: nounwind readonly
declare dso_local i64 @strlen(i8*) #2

declare dso_local i32 @printf(i8*, ...) #1


!llvm.module.flags = !{!0}
!llvm.ident = !{!1}

!0 = !{i32 1, !"wchar_size", i32 4}
!1 = !{!"clang version 10.0.0-4ubuntu1 "}
